target datalayout = "e-m:e-p270:32:32-p271:32:32-p272:64:64-i64:64-i128:128-f80:128-n8:16:32:64-S128"
target triple = "x86_64-pc-linux-gnu"

%struct.rlimit = type { i64, i64 }

@.str = private unnamed_addr constant [4 x i8] c"max\00", align 1
@.str.12 = private unnamed_addr constant [10 x i8] c"unlimited\00", align 1

; Function Attrs: nounwind uwtable
define internal i32 @prte_setlimit(i32 noundef %0, ptr noundef %1, ptr noundef %2) #0 {
  %4 = alloca i32, align 4
  %5 = alloca i32, align 4
  %6 = alloca ptr, align 8
  %7 = alloca ptr, align 8
  %8 = alloca %struct.rlimit, align 8
  %9 = alloca %struct.rlimit, align 8
  %10 = alloca i64, align 8
  %11 = alloca i32, align 4
  store i32 %0, ptr %5, align 4, !tbaa !8
  store ptr %1, ptr %6, align 8, !tbaa !10
  store ptr %2, ptr %7, align 8, !tbaa !22
  call void @llvm.lifetime.start.p0(i64 16, ptr %8) #5
  call void @llvm.lifetime.start.p0(i64 16, ptr %9) #5
  call void @llvm.lifetime.start.p0(i64 8, ptr %10) #5
  %12 = getelementptr inbounds nuw %struct.rlimit, ptr %8, i32 0, i32 0
  store i64 0, ptr %12, align 8, !tbaa !24
  %13 = load ptr, ptr %6, align 8, !tbaa !10
  %14 = call i32 @strcmp(ptr noundef %13, ptr noundef @.str) #6
  %15 = icmp eq i32 0, %14
  br i1 %15, label %16, label %17

16:                                               ; preds = %3
  store i64 -1, ptr %10, align 8, !tbaa !12
  br label %28

17:                                               ; preds = %3
  %18 = load ptr, ptr %6, align 8, !tbaa !10
  %19 = load ptr, ptr %6, align 8, !tbaa !10
  %20 = call i64 @strlen(ptr noundef %19) #6
  %21 = call i32 @strncmp(ptr noundef %18, ptr noundef @.str.12, i64 noundef %20) #6
  %22 = icmp eq i32 0, %21
  br i1 %22, label %23, label %24

23:                                               ; preds = %17
  store i64 -1, ptr %10, align 8, !tbaa !12
  br label %27

24:                                               ; preds = %17
  %25 = load ptr, ptr %6, align 8, !tbaa !10
  %26 = call i64 @strtol(ptr noundef %25, ptr noundef null, i32 noundef 10) #5
  store i64 %26, ptr %10, align 8, !tbaa !12
  br label %27

27:                                               ; preds = %24, %23
  br label %28

28:                                               ; preds = %27, %16
  %29 = load i32, ptr %5, align 4, !tbaa !8
  %30 = call i32 @getrlimit(i32 noundef %29, ptr noundef %8) #5
  %31 = icmp sle i32 0, %30
  br i1 %31, label %32, label %79

32:                                               ; preds = %28
  %33 = getelementptr inbounds nuw %struct.rlimit, ptr %8, i32 0, i32 1
  %34 = load i64, ptr %33, align 8, !tbaa !26
  %35 = load i64, ptr %10, align 8, !tbaa !12
  %36 = icmp ult i64 %34, %35
  br i1 %36, label %37, label %44

37:                                               ; preds = %32
  %38 = getelementptr inbounds nuw %struct.rlimit, ptr %8, i32 0, i32 1
  %39 = load i64, ptr %38, align 8, !tbaa !26
  %40 = getelementptr inbounds nuw %struct.rlimit, ptr %9, i32 0, i32 0
  store i64 %39, ptr %40, align 8, !tbaa !24
  %41 = getelementptr inbounds nuw %struct.rlimit, ptr %8, i32 0, i32 1
  %42 = load i64, ptr %41, align 8, !tbaa !26
  %43 = getelementptr inbounds nuw %struct.rlimit, ptr %9, i32 0, i32 1
  store i64 %42, ptr %43, align 8, !tbaa !26
  br label %49

44:                                               ; preds = %32
  %45 = load i64, ptr %10, align 8, !tbaa !12
  %46 = getelementptr inbounds nuw %struct.rlimit, ptr %9, i32 0, i32 0
  store i64 %45, ptr %46, align 8, !tbaa !24
  %47 = load i64, ptr %10, align 8, !tbaa !12
  %48 = getelementptr inbounds nuw %struct.rlimit, ptr %9, i32 0, i32 1
  store i64 %47, ptr %48, align 8, !tbaa !26
  br label %49

49:                                               ; preds = %44, %37
  %50 = load i32, ptr %5, align 4, !tbaa !8
  %51 = call i32 @setrlimit(i32 noundef %50, ptr noundef %9) #5
  %52 = icmp sle i32 0, %51
  br i1 %52, label %53, label %57

53:                                               ; preds = %49
  %54 = getelementptr inbounds nuw %struct.rlimit, ptr %9, i32 0, i32 0
  %55 = load i64, ptr %54, align 8, !tbaa !24
  %56 = getelementptr inbounds nuw %struct.rlimit, ptr %8, i32 0, i32 0
  store i64 %55, ptr %56, align 8, !tbaa !24
  br label %78

57:                                               ; preds = %49
  %58 = load i64, ptr %10, align 8, !tbaa !12
  %59 = icmp eq i64 -1, %58
  br i1 %59, label %60, label %76

60:                                               ; preds = %57
  %61 = getelementptr inbounds nuw %struct.rlimit, ptr %8, i32 0, i32 1
  %62 = load i64, ptr %61, align 8, !tbaa !26
  %63 = getelementptr inbounds nuw %struct.rlimit, ptr %9, i32 0, i32 0
  store i64 %62, ptr %63, align 8, !tbaa !24
  %64 = getelementptr inbounds nuw %struct.rlimit, ptr %8, i32 0, i32 1
  %65 = load i64, ptr %64, align 8, !tbaa !26
  %66 = getelementptr inbounds nuw %struct.rlimit, ptr %9, i32 0, i32 1
  store i64 %65, ptr %66, align 8, !tbaa !26
  %67 = load i32, ptr %5, align 4, !tbaa !8
  %68 = call i32 @setrlimit(i32 noundef %67, ptr noundef %9) #5
  %69 = icmp sle i32 0, %68
  br i1 %69, label %70, label %74

70:                                               ; preds = %60
  %71 = getelementptr inbounds nuw %struct.rlimit, ptr %9, i32 0, i32 0
  %72 = load i64, ptr %71, align 8, !tbaa !24
  %73 = getelementptr inbounds nuw %struct.rlimit, ptr %8, i32 0, i32 0
  store i64 %72, ptr %73, align 8, !tbaa !24
  br label %75

74:                                               ; preds = %60
  store i32 -1, ptr %4, align 4
  store i32 1, ptr %11, align 4
  br label %84

75:                                               ; preds = %70
  br label %77

76:                                               ; preds = %57
  store i32 -1, ptr %4, align 4
  store i32 1, ptr %11, align 4
  br label %84

77:                                               ; preds = %75
  br label %78

78:                                               ; preds = %77, %53
  br label %80

79:                                               ; preds = %28
  store i32 -1, ptr %4, align 4
  store i32 1, ptr %11, align 4
  br label %84

80:                                               ; preds = %78
  %81 = getelementptr inbounds nuw %struct.rlimit, ptr %8, i32 0, i32 0
  %82 = load i64, ptr %81, align 8, !tbaa !24
  %83 = load ptr, ptr %7, align 8, !tbaa !22
  store i64 %82, ptr %83, align 8, !tbaa !12
  store i32 0, ptr %4, align 4
  store i32 1, ptr %11, align 4
  br label %84

84:                                               ; preds = %80, %79, %76, %74
  call void @llvm.lifetime.end.p0(i64 8, ptr %10) #5
  call void @llvm.lifetime.end.p0(i64 16, ptr %9) #5
  call void @llvm.lifetime.end.p0(i64 16, ptr %8) #5
  %85 = load i32, ptr %4, align 4
  ret i32 %85
}