; Function Attrs: nounwind uwtable
define internal fastcc range(i32 -1, 1) i32 @prte_setlimit(i32 noundef range(i32 1, 10) %0, ptr noundef readonly captures(none) %1, ptr noundef nonnull writeonly captures(none) %2) unnamed_addr #0 {
  %4 = alloca %struct.rlimit, align 8
  %5 = alloca %struct.rlimit, align 8
  call void @llvm.lifetime.start.p0(i64 16, ptr nonnull %4) #7
  call void @llvm.lifetime.start.p0(i64 16, ptr nonnull %5) #7
  store i64 0, ptr %4, align 8, !tbaa !19
  %6 = tail call i32 @strcmp(ptr noundef nonnull dereferenceable(1) %1, ptr noundef nonnull dereferenceable(4) @.str) #8
  %7 = icmp eq i32 %6, 0
  br i1 %7, label %14, label %8

8:                                                ; preds = %3
  %9 = tail call i64 @strlen(ptr noundef nonnull dereferenceable(1) %1) #8
  %10 = tail call i32 @strncmp(ptr noundef nonnull %1, ptr noundef nonnull @.str.12, i64 noundef %9) #8
  %11 = icmp eq i32 %10, 0
  br i1 %11, label %14, label %12

12:                                               ; preds = %8
  %13 = tail call i64 @strtol(ptr noundef nonnull captures(none) %1, ptr noundef null, i32 noundef 10) #7
  br label %14

14:                                               ; preds = %8, %3, %12
  %.0 = phi i64 [ %13, %12 ], [ -1, %3 ], [ -1, %8 ]
  %15 = call i32 @getrlimit(i32 noundef %0, ptr noundef nonnull %4) #7
  %16 = icmp sgt i32 %15, -1
  br i1 %16, label %17, label %30

17:                                               ; preds = %14
  %18 = getelementptr inbounds nuw i8, ptr %4, i64 8
  %19 = load i64, ptr %18, align 8, !tbaa !21
  %spec.select = call i64 @llvm.umin.i64(i64 %19, i64 %.0)
  store i64 %spec.select, ptr %5, align 8, !tbaa !19
  %20 = getelementptr inbounds nuw i8, ptr %5, i64 8
  store i64 %spec.select, ptr %20, align 8, !tbaa !21
  %21 = call i32 @setrlimit(i32 noundef %0, ptr noundef nonnull %5) #7
  %22 = icmp sgt i32 %21, -1
  br i1 %22, label %29, label %23

23:                                               ; preds = %17
  %24 = icmp eq i64 %.0, -1
  br i1 %24, label %25, label %30

25:                                               ; preds = %23
  %26 = load i64, ptr %18, align 8, !tbaa !21
  store i64 %26, ptr %5, align 8, !tbaa !19
  store i64 %26, ptr %20, align 8, !tbaa !21
  %27 = call i32 @setrlimit(i32 noundef %0, ptr noundef nonnull %5) #7
  %28 = icmp sgt i32 %27, -1
  br i1 %28, label %29, label %30

29:                                               ; preds = %25, %17
  %storemerge = load i64, ptr %5, align 8, !tbaa !19
  store i64 %storemerge, ptr %2, align 8, !tbaa !8
  br label %30

30:                                               ; preds = %14, %23, %25, %29
  %.012 = phi i32 [ 0, %29 ], [ -1, %25 ], [ -1, %23 ], [ -1, %14 ]
  call void @llvm.lifetime.end.p0(i64 16, ptr nonnull %5) #7
  call void @llvm.lifetime.end.p0(i64 16, ptr nonnull %4) #7
  ret i32 %.012
}